; Function Attrs: mustprogress uwtable
define noundef i32 @_ZNK7Imf_3_414TiledInputFile9numLevelsEv(ptr noundef nonnull align 8 dereferenceable(32) %0) local_unnamed_addr #3 align 2 personality ptr @__gxx_personality_v0 {
  %2 = alloca %"class.std::__cxx11::basic_stringstream", align 8
  %3 = getelementptr inbounds nuw i8, ptr %0, i64 16
  %4 = load ptr, ptr %3, align 8, !tbaa !6
  %5 = getelementptr inbounds nuw i8, ptr %4, i64 84
  %6 = load i32, ptr %5, align 4, !tbaa !67
  %7 = icmp eq i32 %6, 2
  br i1 %7, label %8, label %22

8:                                                ; preds = %1
  tail call void @_Z13iex_debugTrapv()
  call void @llvm.lifetime.start.p0(i64 392, ptr nonnull %2) #28
  call void @_ZNSt7__cxx1118basic_stringstreamIcSt11char_traitsIcESaIcEEC1Ev(ptr noundef nonnull align 8 dereferenceable(128) %2)
  %9 = getelementptr inbounds nuw i8, ptr %2, i64 16
  %10 = invoke noundef nonnull align 8 dereferenceable(8) ptr @_ZSt16__ostream_insertIcSt11char_traitsIcEERSt13basic_ostreamIT_T0_ES6_PKS3_l(ptr noundef nonnull align 8 dereferenceable(8) %9, ptr noundef nonnull @.str.13, i64 noundef 41)
          to label %_ZStlsISt11char_traitsIcEERSt13basic_ostreamIcT_ES5_PKc.exit unwind label %17

_ZStlsISt11char_traitsIcEERSt13basic_ostreamIcT_ES5_PKc.exit: ; preds = %8
  %11 = invoke noundef ptr @_ZNK7Imf_3_47Context8fileNameEv(ptr noundef nonnull align 8 dereferenceable(32) %0)
          to label %_ZNK7Imf_3_414TiledInputFile8fileNameEv.exit unwind label %17

_ZNK7Imf_3_414TiledInputFile8fileNameEv.exit:     ; preds = %_ZStlsISt11char_traitsIcEERSt13basic_ostreamIcT_ES5_PKc.exit
  %12 = invoke noundef nonnull align 8 dereferenceable(8) ptr @_ZStlsISt11char_traitsIcEERSt13basic_ostreamIcT_ES5_PKc(ptr noundef nonnull align 8 dereferenceable(8) %9, ptr noundef %11)
          to label %13 unwind label %17

13:                                               ; preds = %_ZNK7Imf_3_414TiledInputFile8fileNameEv.exit
  %14 = invoke noundef nonnull align 8 dereferenceable(8) ptr @_ZSt16__ostream_insertIcSt11char_traitsIcEERSt13basic_ostreamIT_T0_ES6_PKS3_l(ptr noundef nonnull align 8 dereferenceable(8) %12, ptr noundef nonnull @.str.14, i64 noundef 64)
          to label %_ZStlsISt11char_traitsIcEERSt13basic_ostreamIcT_ES5_PKc.exit4 unwind label %17

_ZStlsISt11char_traitsIcEERSt13basic_ostreamIcT_ES5_PKc.exit4: ; preds = %13
  %15 = call ptr @__cxa_allocate_exception(i64 72) #28
  invoke void @_ZN7Iex_3_48LogicExcC1ERNSt7__cxx1118basic_stringstreamIcSt11char_traitsIcESaIcEEE(ptr noundef nonnull align 8 dereferenceable(72) %15, ptr noundef nonnull align 8 dereferenceable(128) %2)
          to label %16 unwind label %19

16:                                               ; preds = %_ZStlsISt11char_traitsIcEERSt13basic_ostreamIcT_ES5_PKc.exit4
  invoke void @__cxa_throw(ptr nonnull %15, ptr nonnull @_ZTIN7Iex_3_48LogicExcE, ptr nonnull @_ZN7Iex_3_48LogicExcD1Ev) #30
          to label %25 unwind label %17

17:                                               ; preds = %13, %_ZStlsISt11char_traitsIcEERSt13basic_ostreamIcT_ES5_PKc.exit, %8, %16, %_ZNK7Imf_3_414TiledInputFile8fileNameEv.exit
  %18 = landingpad { ptr, i32 }
          cleanup
  br label %21

19:                                               ; preds = %_ZStlsISt11char_traitsIcEERSt13basic_ostreamIcT_ES5_PKc.exit4
  %20 = landingpad { ptr, i32 }
          cleanup
  call void @__cxa_free_exception(ptr nonnull %15) #28
  br label %21

21:                                               ; preds = %19, %17
  %.pn = phi { ptr, i32 } [ %18, %17 ], [ %20, %19 ]
  call void @_ZNSt7__cxx1118basic_stringstreamIcSt11char_traitsIcESaIcEED1Ev(ptr noundef nonnull align 8 dereferenceable(128) %2) #28
  call void @llvm.lifetime.end.p0(i64 392, ptr nonnull %2) #28
  resume { ptr, i32 } %.pn

22:                                               ; preds = %1
  %23 = getelementptr inbounds nuw i8, ptr %4, i64 92
  %24 = load i32, ptr %23, align 4, !tbaa !69
  ret i32 %24

25:                                               ; preds = %16
  unreachable
}